; Function Attrs: nounwind uwtable
define hidden range(i32 0, 2) i32 @mpd_realloc_dyn_cxx(ptr noundef captures(none) %0, i64 noundef %1) local_unnamed_addr #4 {
  %3 = getelementptr inbounds nuw i8, ptr %0, i64 40
  %4 = icmp ugt i64 %1, 2305843009213693951
  br i1 %4, label %mpd_realloc.exit, label %5

5:                                                ; preds = %2
  %6 = load ptr, ptr %3, align 8, !tbaa !10
  %umul.value.i = shl nuw i64 %1, 3
  %7 = load ptr, ptr @mpd_reallocfunc, align 8, !tbaa !3
  %8 = tail call ptr %7(ptr noundef %6, i64 noundef %umul.value.i) #9
  %9 = icmp eq ptr %8, null
  br i1 %9, label %mpd_realloc.exit, label %10

10:                                               ; preds = %5
  store ptr %8, ptr %3, align 8, !tbaa !10
  %11 = getelementptr inbounds nuw i8, ptr %0, i64 32
  store i64 %1, ptr %11, align 8, !tbaa !14
  br label %15

mpd_realloc.exit:                                 ; preds = %5, %2
  %12 = getelementptr inbounds nuw i8, ptr %0, i64 32
  %13 = load i64, ptr %12, align 8, !tbaa !14
  %14 = icmp sgt i64 %1, %13
  br i1 %14, label %16, label %15

15:                                               ; preds = %mpd_realloc.exit, %10
  br label %16

16:                                               ; preds = %mpd_realloc.exit, %15
  %.0 = phi i32 [ 1, %15 ], [ 0, %mpd_realloc.exit ]
  ret i32 %.0
}